target datalayout = "e-m:e-p270:32:32-p271:32:32-p272:64:64-i64:64-i128:128-f80:128-n8:16:32:64-S128"
target triple = "x86_64-pc-linux-gnu"

%"class.std::vector" = type { %"struct.std::_Vector_base" }
%"struct.std::_Vector_base" = type { %"struct.std::_Vector_base<int, std::allocator<int>>::_Vector_impl" }
%"struct.std::_Vector_base<int, std::allocator<int>>::_Vector_impl" = type { %"struct.std::_Vector_base<int, std::allocator<int>>::_Vector_impl_data" }
%"struct.std::_Vector_base<int, std::allocator<int>>::_Vector_impl_data" = type { ptr, ptr, ptr }
%"class.std::vector.43" = type { %"struct.std::_Vector_base.44" }
%"struct.std::_Vector_base.44" = type { %"struct.std::_Vector_base<t_shell, std::allocator<t_shell>>::_Vector_impl" }
%"struct.std::_Vector_base<t_shell, std::allocator<t_shell>>::_Vector_impl" = type { %"struct.std::_Vector_base<t_shell, std::allocator<t_shell>>::_Vector_impl_data" }
%"struct.std::_Vector_base<t_shell, std::allocator<t_shell>>::_Vector_impl_data" = type { ptr, ptr, ptr }
%struct.gmx_shellfc_t = type <{ %"class.std::vector.43", %"class.std::vector", i8, [7 x i8], %"class.std::vector.43", i8, i8, [2 x i8], i32, %"struct.std::array", %"struct.std::array", %"class.std::vector.50", %"class.gmx::PaddedVector.55", %"class.gmx::PaddedVector.55", %"class.gmx::PaddedVector.55", i64, i32, [4 x i8] }>
%"struct.std::array" = type { [2 x %"class.gmx::PaddedVector"] }
%"class.gmx::PaddedVector" = type { %"class.std::vector.48", %"class.__gnu_cxx::__normal_iterator" }
%"class.std::vector.48" = type { %"struct.std::_Vector_base.49" }
%"struct.std::_Vector_base.49" = type { %"struct.std::_Vector_base<gmx::BasicVector<float>, gmx::Allocator<gmx::BasicVector<float>, gmx::HostAllocationPolicy>>::_Vector_impl" }
%"struct.std::_Vector_base<gmx::BasicVector<float>, gmx::Allocator<gmx::BasicVector<float>, gmx::HostAllocationPolicy>>::_Vector_impl" = type { %"class.gmx::Allocator", %"struct.std::_Vector_base<gmx::BasicVector<float>, gmx::Allocator<gmx::BasicVector<float>, gmx::HostAllocationPolicy>>::_Vector_impl_data" }
%"class.gmx::Allocator" = type { %"class.gmx::HostAllocationPolicy" }
%"class.gmx::HostAllocationPolicy" = type { i32 }
%"struct.std::_Vector_base<gmx::BasicVector<float>, gmx::Allocator<gmx::BasicVector<float>, gmx::HostAllocationPolicy>>::_Vector_impl_data" = type { ptr, ptr, ptr }
%"class.__gnu_cxx::__normal_iterator" = type { ptr }
%"class.std::vector.50" = type { %"struct.std::_Vector_base.51" }
%"struct.std::_Vector_base.51" = type { %"struct.std::_Vector_base<gmx::BasicVector<float>, std::allocator<gmx::BasicVector<float>>>::_Vector_impl" }
%"struct.std::_Vector_base<gmx::BasicVector<float>, std::allocator<gmx::BasicVector<float>>>::_Vector_impl" = type { %"struct.std::_Vector_base<gmx::BasicVector<float>, std::allocator<gmx::BasicVector<float>>>::_Vector_impl_data" }
%"struct.std::_Vector_base<gmx::BasicVector<float>, std::allocator<gmx::BasicVector<float>>>::_Vector_impl_data" = type { ptr, ptr, ptr }
%"class.gmx::PaddedVector.55" = type { %"class.std::vector.56", %"class.__gnu_cxx::__normal_iterator.59" }
%"class.std::vector.56" = type { %"struct.std::_Vector_base.57" }
%"struct.std::_Vector_base.57" = type { %"struct.std::_Vector_base<gmx::BasicVector<float>, gmx::Allocator<gmx::BasicVector<float>, gmx::AlignedAllocationPolicy>>::_Vector_impl" }
%"struct.std::_Vector_base<gmx::BasicVector<float>, gmx::Allocator<gmx::BasicVector<float>, gmx::AlignedAllocationPolicy>>::_Vector_impl" = type { %"struct.std::_Vector_base<gmx::BasicVector<float>, gmx::Allocator<gmx::BasicVector<float>, gmx::AlignedAllocationPolicy>>::_Vector_impl_data" }
%"struct.std::_Vector_base<gmx::BasicVector<float>, gmx::Allocator<gmx::BasicVector<float>, gmx::AlignedAllocationPolicy>>::_Vector_impl_data" = type { ptr, ptr, ptr }
%"class.__gnu_cxx::__normal_iterator.59" = type { ptr }

@.str.63 = private unnamed_addr constant [58 x i8] c"Fraction of iterations that converged:           %.2f %%\0A\00", align 1
@.str.64 = private unnamed_addr constant [56 x i8] c"Average number of force evaluations per MD step: %.2f\0A\0A\00", align 1

; Function Attrs: mustprogress nounwind uwtable
define void @_Z12done_shellfcP8_IO_FILEP13gmx_shellfc_tl(ptr noundef %0, ptr noundef %1, i64 noundef %2) #3 {
  %4 = alloca ptr, align 8
  %5 = alloca ptr, align 8
  %6 = alloca i64, align 8
  %7 = alloca double, align 8
  store ptr %0, ptr %4, align 8
  store ptr %1, ptr %5, align 8
  store i64 %2, ptr %6, align 8
  %8 = load ptr, ptr %5, align 8
  %9 = icmp ne ptr %8, null
  br i1 %9, label %10, label %36

10:                                               ; preds = %3
  %11 = load ptr, ptr %4, align 8
  %12 = icmp ne ptr %11, null
  br i1 %12, label %13, label %36

13:                                               ; preds = %10
  %14 = load i64, ptr %6, align 8
  %15 = icmp sgt i64 %14, 0
  br i1 %15, label %16, label %36

16:                                               ; preds = %13
  %17 = load i64, ptr %6, align 8
  %18 = sitofp i64 %17 to double
  store double %18, ptr %7, align 8
  %19 = load ptr, ptr %4, align 8
  %20 = load ptr, ptr %5, align 8
  %21 = getelementptr inbounds %struct.gmx_shellfc_t, ptr %20, i32 0, i32 16
  %22 = load i32, ptr %21, align 8
  %23 = sitofp i32 %22 to double
  %24 = fmul double %23, 1.000000e+02
  %25 = load double, ptr %7, align 8
  %26 = fdiv double %24, %25
  %27 = call i32 (ptr, ptr, ...) @fprintf(ptr noundef %19, ptr noundef @.str.63, double noundef %26) #4
  %28 = load ptr, ptr %4, align 8
  %29 = load ptr, ptr %5, align 8
  %30 = getelementptr inbounds %struct.gmx_shellfc_t, ptr %29, i32 0, i32 15
  %31 = load i64, ptr %30, align 8
  %32 = sitofp i64 %31 to double
  %33 = load double, ptr %7, align 8
  %34 = fdiv double %32, %33
  %35 = call i32 (ptr, ptr, ...) @fprintf(ptr noundef %28, ptr noundef @.str.64, double noundef %34) #4
  br label %36

36:                                               ; preds = %16, %13, %10, %3
  %37 = load ptr, ptr %5, align 8
  %38 = icmp eq ptr %37, null
  br i1 %38, label %40, label %39

39:                                               ; preds = %36
  call void @_ZN13gmx_shellfc_tD2Ev(ptr noundef nonnull align 8 dereferenceable(380) %37) #4
  call void @_ZdlPv(ptr noundef %37) #18
  br label %40

40:                                               ; preds = %39, %36
  ret void
}