; Function Attrs: mustprogress nounwind uwtable
define void @_Z12done_shellfcP8_IO_FILEP13gmx_shellfc_tl(ptr noundef %0, ptr noundef %1, i64 noundef %2) local_unnamed_addr #1 {
  %4 = icmp ne ptr %1, null
  %5 = icmp ne ptr %0, null
  %or.cond = and i1 %5, %4
  %6 = icmp sgt i64 %2, 0
  %or.cond3 = and i1 %or.cond, %6
  br i1 %or.cond3, label %.thread, label %19

.thread:                                          ; preds = %3
  %7 = sitofp i64 %2 to double
  %8 = getelementptr inbounds i8, ptr %1, i64 376
  %9 = load i32, ptr %8, align 8
  %10 = sitofp i32 %9 to double
  %11 = fmul double %10, 1.000000e+02
  %12 = fdiv double %11, %7
  %13 = tail call i32 (ptr, ptr, ...) @fprintf(ptr noundef nonnull %0, ptr noundef nonnull @.str.63, double noundef %12) #23
  %14 = getelementptr inbounds i8, ptr %1, i64 368
  %15 = load i64, ptr %14, align 8
  %16 = sitofp i64 %15 to double
  %17 = fdiv double %16, %7
  %18 = tail call i32 (ptr, ptr, ...) @fprintf(ptr noundef nonnull %0, ptr noundef nonnull @.str.64, double noundef %17) #23
  br label %21

19:                                               ; preds = %3
  %20 = icmp eq ptr %1, null
  br i1 %20, label %22, label %21

21:                                               ; preds = %.thread, %19
  tail call void @_ZN13gmx_shellfc_tD2Ev(ptr noundef nonnull align 8 dereferenceable(380) %1) #23
  tail call void @_ZdlPv(ptr noundef nonnull %1) #26
  br label %22

22:                                               ; preds = %21, %19
  ret void
}